target datalayout = "e-m:e-p270:32:32-p271:32:32-p272:64:64-i64:64-i128:128-f80:128-n8:16:32:64-S128"
target triple = "x86_64-pc-linux-gnu"

%"class.QMetaObject::Connection" = type { ptr }
%class.MeshLabOptionsDialog = type { %class.QDialog, ptr, ptr, ptr, ptr }
%class.QDialog = type { %class.QWidget }
%class.QWidget = type { %class.QObject, %class.QPaintDevice, ptr }
%class.QObject = type { ptr, %class.QScopedPointer }
%class.QScopedPointer = type { ptr }
%class.QPaintDevice = type { ptr, i16, ptr }

@.str.9 = private unnamed_addr constant [42 x i8] c"2applySettingSignal(const RichParameter&)\00", align 1
@.str.10 = private unnamed_addr constant [43 x i8] c"1updateSingleSetting(const RichParameter&)\00", align 1

; Function Attrs: mustprogress uwtable
define void @_ZN20MeshLabOptionsDialog13openSubDialogEP16QTableWidgetItem(ptr noundef nonnull align 8 dereferenceable(80) %0, ptr noundef %1) #5 align 2 personality ptr @__gxx_personality_v0 {
  %3 = alloca ptr, align 8
  %4 = alloca ptr, align 8
  %5 = alloca i32, align 4
  %6 = alloca ptr, align 8
  %7 = alloca ptr, align 8
  %8 = alloca ptr, align 8
  %9 = alloca ptr, align 8
  %10 = alloca i32, align 4
  %11 = alloca %"class.QMetaObject::Connection", align 8
  store ptr %0, ptr %3, align 8
  store ptr %1, ptr %4, align 8
  %12 = load ptr, ptr %3, align 8
  %13 = getelementptr inbounds %class.MeshLabOptionsDialog, ptr %12, i32 0, i32 3
  %14 = load ptr, ptr %13, align 8
  %15 = load ptr, ptr %4, align 8
  %16 = call noundef i32 @_ZNK12QTableWidget3rowEPK16QTableWidgetItem(ptr noundef nonnull align 8 dereferenceable(48) %14, ptr noundef %15)
  store i32 %16, ptr %5, align 4
  %17 = getelementptr inbounds %class.MeshLabOptionsDialog, ptr %12, i32 0, i32 1
  %18 = load ptr, ptr %17, align 8
  %19 = load i32, ptr %5, align 4
  %20 = call noundef nonnull align 8 dereferenceable(56) ptr @_ZN17RichParameterList2atEj(ptr noundef nonnull align 8 dereferenceable(24) %18, i32 noundef %19)
  store ptr %20, ptr %6, align 8
  %21 = getelementptr inbounds %class.MeshLabOptionsDialog, ptr %12, i32 0, i32 2
  %22 = load ptr, ptr %21, align 8
  %23 = load ptr, ptr %6, align 8
  %24 = call noundef nonnull align 8 dereferenceable(8) ptr @_ZNK13RichParameter4nameEv(ptr noundef nonnull align 8 dereferenceable(56) %23)
  %25 = call noundef nonnull align 8 dereferenceable(56) ptr @_ZNK17RichParameterList18getParameterByNameERK7QString(ptr noundef nonnull align 8 dereferenceable(24) %22, ptr noundef nonnull align 8 dereferenceable(8) %24)
  store ptr %25, ptr %7, align 8
  %26 = call noalias noundef nonnull ptr @_Znwm(i64 noundef 320) #14
  %27 = load ptr, ptr %6, align 8
  %28 = load ptr, ptr %7, align 8
  invoke void @_ZN13SettingDialogC1ERK13RichParameterS2_P7QWidget(ptr noundef nonnull align 8 dereferenceable(320) %26, ptr noundef nonnull align 8 dereferenceable(56) %27, ptr noundef nonnull align 8 dereferenceable(56) %28, ptr noundef %12)
          to label %29 unwind label %43

29:                                               ; preds = %2
  store ptr %26, ptr %8, align 8
  %30 = load ptr, ptr %8, align 8
  call void @_ZN7QObject7connectEPKS_PKcS1_S3_N2Qt14ConnectionTypeE(ptr dead_on_unwind writable sret(%"class.QMetaObject::Connection") align 8 %11, ptr noundef %30, ptr noundef @.str.9, ptr noundef %12, ptr noundef @.str.10, i32 noundef 0)
  call void @_ZN11QMetaObject10ConnectionD1Ev(ptr noundef nonnull align 8 dereferenceable(8) %11) #3
  %31 = load ptr, ptr %8, align 8
  %32 = load ptr, ptr %31, align 8
  %33 = getelementptr inbounds ptr, ptr %32, i64 53
  %34 = load ptr, ptr %33, align 8
  %35 = call noundef i32 %34(ptr noundef nonnull align 8 dereferenceable(48) %31)
  %36 = load ptr, ptr %8, align 8
  %37 = icmp eq ptr %36, null
  br i1 %37, label %42, label %38

38:                                               ; preds = %29
  %39 = load ptr, ptr %36, align 8
  %40 = getelementptr inbounds ptr, ptr %39, i64 4
  %41 = load ptr, ptr %40, align 8
  call void %41(ptr noundef nonnull align 8 dereferenceable(320) %36) #3
  br label %42

42:                                               ; preds = %38, %29
  ret void

43:                                               ; preds = %2
  %44 = landingpad { ptr, i32 }
          cleanup
  %45 = extractvalue { ptr, i32 } %44, 0
  store ptr %45, ptr %9, align 8
  %46 = extractvalue { ptr, i32 } %44, 1
  store i32 %46, ptr %10, align 4
  call void @_ZdlPv(ptr noundef %26) #15
  br label %47

47:                                               ; preds = %43
  %48 = load ptr, ptr %9, align 8
  %49 = load i32, ptr %10, align 4
  %50 = insertvalue { ptr, i32 } poison, ptr %48, 0
  %51 = insertvalue { ptr, i32 } %50, i32 %49, 1
  resume { ptr, i32 } %51
}