; Function Attrs: mustprogress uwtable
define void @_ZN20MeshLabOptionsDialog13openSubDialogEP16QTableWidgetItem(ptr noundef nonnull align 8 dereferenceable(80) %0, ptr noundef %1) local_unnamed_addr #3 align 2 personality ptr @__gxx_personality_v0 {
  %3 = alloca %"class.QMetaObject::Connection", align 8
  %4 = getelementptr inbounds i8, ptr %0, i64 64
  %5 = load ptr, ptr %4, align 8
  %6 = tail call noundef i32 @_ZNK12QTableWidget3rowEPK16QTableWidgetItem(ptr noundef nonnull align 8 dereferenceable(48) %5, ptr noundef %1)
  %7 = getelementptr inbounds i8, ptr %0, i64 48
  %8 = load ptr, ptr %7, align 8
  %9 = tail call noundef nonnull align 8 dereferenceable(56) ptr @_ZN17RichParameterList2atEj(ptr noundef nonnull align 8 dereferenceable(24) %8, i32 noundef %6)
  %10 = getelementptr inbounds i8, ptr %0, i64 56
  %11 = load ptr, ptr %10, align 8
  %12 = tail call noundef nonnull align 8 dereferenceable(8) ptr @_ZNK13RichParameter4nameEv(ptr noundef nonnull align 8 dereferenceable(56) %9)
  %13 = tail call noundef nonnull align 8 dereferenceable(56) ptr @_ZNK17RichParameterList18getParameterByNameERK7QString(ptr noundef nonnull align 8 dereferenceable(24) %11, ptr noundef nonnull align 8 dereferenceable(8) %12)
  %14 = tail call noalias noundef nonnull dereferenceable(320) ptr @_Znwm(i64 noundef 320) #13
  invoke void @_ZN13SettingDialogC1ERK13RichParameterS2_P7QWidget(ptr noundef nonnull align 8 dereferenceable(320) %14, ptr noundef nonnull align 8 dereferenceable(56) %9, ptr noundef nonnull align 8 dereferenceable(56) %13, ptr noundef nonnull %0)
          to label %15 unwind label %23

15:                                               ; preds = %2
  call void @_ZN7QObject7connectEPKS_PKcS1_S3_N2Qt14ConnectionTypeE(ptr dead_on_unwind nonnull writable sret(%"class.QMetaObject::Connection") align 8 %3, ptr noundef nonnull %14, ptr noundef nonnull @.str.9, ptr noundef nonnull %0, ptr noundef nonnull @.str.10, i32 noundef 0)
  call void @_ZN11QMetaObject10ConnectionD1Ev(ptr noundef nonnull align 8 dereferenceable(8) %3) #14
  %16 = load ptr, ptr %14, align 8
  %17 = getelementptr inbounds i8, ptr %16, i64 424
  %18 = load ptr, ptr %17, align 8
  %19 = call noundef i32 %18(ptr noundef nonnull align 8 dereferenceable(48) %14)
  %20 = load ptr, ptr %14, align 8
  %21 = getelementptr inbounds i8, ptr %20, i64 32
  %22 = load ptr, ptr %21, align 8
  call void %22(ptr noundef nonnull align 8 dereferenceable(320) %14) #14
  ret void

23:                                               ; preds = %2
  %24 = landingpad { ptr, i32 }
          cleanup
  tail call void @_ZdlPv(ptr noundef nonnull %14) #15
  resume { ptr, i32 } %24
}